target datalayout = "e-m:e-p270:32:32-p271:32:32-p272:64:64-i64:64-i128:128-f80:128-n8:16:32:64-S128"
target triple = "x86_64-unknown-linux-gnu"

%"class.std::type_info" = type { ptr, ptr }

@_ZTIN6icu_758CalendarE = external constant ptr
@_ZTIN6icu_7517GregorianCalendarE = external constant ptr
@_ZTIN6icu_7515ISO8601CalendarE = external constant ptr

; Function Attrs: mustprogress nounwind uwtable
define linkonce_odr noundef ptr @_ZNKSt9type_info4nameEv(ptr noundef nonnull align 8 dereferenceable(16) %this) #0 comdat align 2 {
entry:
  %this.addr = alloca ptr, align 8
  store ptr %this, ptr %this.addr, align 8
  %this1 = load ptr, ptr %this.addr, align 8
  %__name = getelementptr inbounds %"class.std::type_info", ptr %this1, i32 0, i32 1
  %0 = load ptr, ptr %__name, align 8
  %arrayidx = getelementptr inbounds i8, ptr %0, i64 0
  %1 = load i8, ptr %arrayidx, align 1
  %conv = sext i8 %1 to i32
  %cmp = icmp eq i32 %conv, 42
  br i1 %cmp, label %cond.true, label %cond.false

cond.true:                                        ; preds = %entry
  %__name2 = getelementptr inbounds %"class.std::type_info", ptr %this1, i32 0, i32 1
  %2 = load ptr, ptr %__name2, align 8
  %add.ptr = getelementptr inbounds i8, ptr %2, i64 1
  br label %cond.end

cond.false:                                       ; preds = %entry
  %__name3 = getelementptr inbounds %"class.std::type_info", ptr %this1, i32 0, i32 1
  %3 = load ptr, ptr %__name3, align 8
  br label %cond.end

cond.end:                                         ; preds = %cond.false, %cond.true
  %cond = phi ptr [ %add.ptr, %cond.true ], [ %3, %cond.false ]
  ret ptr %cond
}

; Function Attrs: mustprogress nounwind uwtable
define linkonce_odr noundef zeroext i1 @_ZNKSt9type_infoeqERKS_(ptr noundef nonnull align 8 dereferenceable(16) %this, ptr noundef nonnull align 8 dereferenceable(16) %__arg) #0 comdat align 2 {
entry:
  %retval = alloca i1, align 1
  %this.addr = alloca ptr, align 8
  %__arg.addr = alloca ptr, align 8
  store ptr %this, ptr %this.addr, align 8
  store ptr %__arg, ptr %__arg.addr, align 8
  %this1 = load ptr, ptr %this.addr, align 8
  %__name = getelementptr inbounds %"class.std::type_info", ptr %this1, i32 0, i32 1
  %0 = load ptr, ptr %__name, align 8
  %1 = load ptr, ptr %__arg.addr, align 8
  %__name2 = getelementptr inbounds %"class.std::type_info", ptr %1, i32 0, i32 1
  %2 = load ptr, ptr %__name2, align 8
  %cmp = icmp eq ptr %0, %2
  br i1 %cmp, label %if.then, label %if.end

if.then:                                          ; preds = %entry
  store i1 true, ptr %retval, align 1
  br label %return

if.end:                                           ; preds = %entry
  %__name3 = getelementptr inbounds %"class.std::type_info", ptr %this1, i32 0, i32 1
  %3 = load ptr, ptr %__name3, align 8
  %arrayidx = getelementptr inbounds i8, ptr %3, i64 0
  %4 = load i8, ptr %arrayidx, align 1
  %conv = sext i8 %4 to i32
  %cmp4 = icmp ne i32 %conv, 42
  br i1 %cmp4, label %land.rhs, label %land.end

land.rhs:                                         ; preds = %if.end
  %__name5 = getelementptr inbounds %"class.std::type_info", ptr %this1, i32 0, i32 1
  %5 = load ptr, ptr %__name5, align 8
  %6 = load ptr, ptr %__arg.addr, align 8
  %call = call noundef ptr @_ZNKSt9type_info4nameEv(ptr noundef nonnull align 8 dereferenceable(16) %6) #9
  %call6 = call i32 @strcmp(ptr noundef %5, ptr noundef %call) #9
  %cmp7 = icmp eq i32 %call6, 0
  br label %land.end

land.end:                                         ; preds = %land.rhs, %if.end
  %7 = phi i1 [ false, %if.end ], [ %cmp7, %land.rhs ]
  store i1 %7, ptr %retval, align 1
  br label %return

return:                                           ; preds = %land.end, %if.then
  %8 = load i1, ptr %retval, align 1
  ret i1 %8
}

; Function Attrs: mustprogress nounwind uwtable
define linkonce_odr noundef zeroext i1 @_ZNKSt9type_infoneERKS_(ptr noundef nonnull align 8 dereferenceable(16) %this, ptr noundef nonnull align 8 dereferenceable(16) %__arg) #0 comdat align 2 {
entry:
  %this.addr = alloca ptr, align 8
  %__arg.addr = alloca ptr, align 8
  store ptr %this, ptr %this.addr, align 8
  store ptr %__arg, ptr %__arg.addr, align 8
  %this1 = load ptr, ptr %this.addr, align 8
  %0 = load ptr, ptr %__arg.addr, align 8
  %call = call noundef zeroext i1 @_ZNKSt9type_infoeqERKS_(ptr noundef nonnull align 8 dereferenceable(16) %this1, ptr noundef nonnull align 8 dereferenceable(16) %0) #9
  %lnot = xor i1 %call, true
  ret i1 %lnot
}

; Function Attrs: mustprogress nounwind uwtable
define internal noundef signext i8 @_ZL9U_FAILURE10UErrorCode(i32 noundef %code) #0 {
entry:
  %code.addr = alloca i32, align 4
  store i32 %code, ptr %code.addr, align 4
  %0 = load i32, ptr %code.addr, align 4
  %cmp = icmp sgt i32 %0, 0
  %conv = zext i1 %cmp to i8
  ret i8 %conv
}

; Function Attrs: mustprogress uwtable
define void @ucal_setGregorianChange_75(ptr noundef %cal, double noundef %date, ptr noundef %pErrorCode) #1 {
entry:
  %cal.addr = alloca ptr, align 8
  %date.addr = alloca double, align 8
  %pErrorCode.addr = alloca ptr, align 8
  %cpp_cal = alloca ptr, align 8
  %gregocal = alloca ptr, align 8
  store ptr %cal, ptr %cal.addr, align 8
  store double %date, ptr %date.addr, align 8
  store ptr %pErrorCode, ptr %pErrorCode.addr, align 8
  %0 = load ptr, ptr %pErrorCode.addr, align 8
  %1 = load i32, ptr %0, align 4
  %call = call noundef signext i8 @_ZL9U_FAILURE10UErrorCode(i32 noundef %1)
  %tobool = icmp ne i8 %call, 0
  br i1 %tobool, label %if.then, label %if.end

if.then:                                          ; preds = %entry
  br label %return

if.end:                                           ; preds = %entry
  %2 = load ptr, ptr %cal.addr, align 8
  store ptr %2, ptr %cpp_cal, align 8
  %3 = load ptr, ptr %cpp_cal, align 8
  %4 = icmp eq ptr %3, null
  br i1 %4, label %dynamic_cast.null, label %dynamic_cast.notnull

dynamic_cast.notnull:                             ; preds = %if.end
  %5 = call ptr @__dynamic_cast(ptr %3, ptr @_ZTIN6icu_758CalendarE, ptr @_ZTIN6icu_7517GregorianCalendarE, i64 0) #9
  br label %dynamic_cast.end

dynamic_cast.null:                                ; preds = %if.end
  br label %dynamic_cast.end

dynamic_cast.end:                                 ; preds = %dynamic_cast.null, %dynamic_cast.notnull
  %6 = phi ptr [ %5, %dynamic_cast.notnull ], [ null, %dynamic_cast.null ]
  store ptr %6, ptr %gregocal, align 8
  %7 = load ptr, ptr %cpp_cal, align 8
  %cmp = icmp eq ptr %7, null
  br i1 %cmp, label %if.then1, label %if.end2

if.then1:                                         ; preds = %dynamic_cast.end
  %8 = load ptr, ptr %pErrorCode.addr, align 8
  store i32 1, ptr %8, align 4
  br label %return

if.end2:                                          ; preds = %dynamic_cast.end
  %9 = load ptr, ptr %cpp_cal, align 8
  %10 = icmp eq ptr %9, null
  br i1 %10, label %typeid.bad_typeid, label %typeid.end

typeid.bad_typeid:                                ; preds = %if.end2
  call void @__cxa_bad_typeid() #12
  unreachable

typeid.end:                                       ; preds = %if.end2
  %vtable = load ptr, ptr %9, align 8
  %11 = getelementptr inbounds ptr, ptr %vtable, i64 -1
  %12 = load ptr, ptr %11, align 8
  %call3 = call noundef zeroext i1 @_ZNKSt9type_infoneERKS_(ptr noundef nonnull align 8 dereferenceable(16) %12, ptr noundef nonnull align 8 dereferenceable(16) @_ZTIN6icu_7517GregorianCalendarE) #9
  br i1 %call3, label %land.lhs.true, label %if.end9

land.lhs.true:                                    ; preds = %typeid.end
  %13 = load ptr, ptr %cpp_cal, align 8
  %14 = icmp eq ptr %13, null
  br i1 %14, label %typeid.bad_typeid4, label %typeid.end5

typeid.bad_typeid4:                               ; preds = %land.lhs.true
  call void @__cxa_bad_typeid() #12
  unreachable

typeid.end5:                                      ; preds = %land.lhs.true
  %vtable6 = load ptr, ptr %13, align 8
  %15 = getelementptr inbounds ptr, ptr %vtable6, i64 -1
  %16 = load ptr, ptr %15, align 8
  %call7 = call noundef zeroext i1 @_ZNKSt9type_infoneERKS_(ptr noundef nonnull align 8 dereferenceable(16) %16, ptr noundef nonnull align 8 dereferenceable(16) @_ZTIN6icu_7515ISO8601CalendarE) #9
  br i1 %call7, label %if.then8, label %if.end9

if.then8:                                         ; preds = %typeid.end5
  %17 = load ptr, ptr %pErrorCode.addr, align 8
  store i32 16, ptr %17, align 4
  br label %return

if.end9:                                          ; preds = %typeid.end5, %typeid.end
  %18 = load ptr, ptr %gregocal, align 8
  %19 = load double, ptr %date.addr, align 8
  %20 = load ptr, ptr %pErrorCode.addr, align 8
  call void @_ZN6icu_7517GregorianCalendar18setGregorianChangeEdR10UErrorCode(ptr noundef nonnull align 8 dereferenceable(654) %18, double noundef %19, ptr noundef nonnull align 4 dereferenceable(4) %20)
  br label %return

return:                                           ; preds = %if.end9, %if.then8, %if.then1, %if.then
  ret void
}